target datalayout = "e-m:e-p270:32:32-p271:32:32-p272:64:64-i64:64-i128:128-f80:128-n8:16:32:64-S128"
target triple = "x86_64-unknown-linux-gnu"

%"class.QuantLib::Integrator" = type { ptr, double, double, i64, i64 }

; Function Attrs: mustprogress uwtable
define noundef double @_ZNK8QuantLib10IntegratorclERKSt8functionIFddEEdd(ptr noundef nonnull align 8 dereferenceable(40) %this, ptr noundef nonnull align 1 %f, double noundef %a, double noundef %b) #0 align 2 {
entry:
  %retval = alloca double, align 8
  %this.addr = alloca ptr, align 8
  %f.addr = alloca ptr, align 8
  %a.addr = alloca double, align 8
  %b.addr = alloca double, align 8
  store ptr %this, ptr %this.addr, align 8, !tbaa !3
  store ptr %f, ptr %f.addr, align 8, !tbaa !3
  store double %a, ptr %a.addr, align 8, !tbaa !7
  store double %b, ptr %b.addr, align 8, !tbaa !7
  %this1 = load ptr, ptr %this.addr, align 8
  %evaluations_ = getelementptr inbounds nuw %"class.QuantLib::Integrator", ptr %this1, i32 0, i32 4
  store i64 0, ptr %evaluations_, align 8, !tbaa !17
  %0 = load double, ptr %a.addr, align 8, !tbaa !7
  %1 = load double, ptr %b.addr, align 8, !tbaa !7
  %cmp = fcmp oeq double %0, %1
  br i1 %cmp, label %if.then, label %if.end

if.then:                                          ; preds = %entry
  store double 0.000000e+00, ptr %retval, align 8
  br label %return

if.end:                                           ; preds = %entry
  %2 = load double, ptr %b.addr, align 8, !tbaa !7
  %3 = load double, ptr %a.addr, align 8, !tbaa !7
  %cmp2 = fcmp ogt double %2, %3
  br i1 %cmp2, label %if.then3, label %if.else

if.then3:                                         ; preds = %if.end
  %4 = load ptr, ptr %f.addr, align 8, !tbaa !3
  %5 = load double, ptr %a.addr, align 8, !tbaa !7
  %6 = load double, ptr %b.addr, align 8, !tbaa !7
  %vtable = load ptr, ptr %this1, align 8, !tbaa !11
  %vfn = getelementptr inbounds ptr, ptr %vtable, i64 3
  %7 = load ptr, ptr %vfn, align 8
  %call = call noundef double %7(ptr noundef nonnull align 8 dereferenceable(40) %this1, ptr noundef nonnull align 1 %4, double noundef %5, double noundef %6)
  store double %call, ptr %retval, align 8
  br label %return

if.else:                                          ; preds = %if.end
  %8 = load ptr, ptr %f.addr, align 8, !tbaa !3
  %9 = load double, ptr %b.addr, align 8, !tbaa !7
  %10 = load double, ptr %a.addr, align 8, !tbaa !7
  %vtable4 = load ptr, ptr %this1, align 8, !tbaa !11
  %vfn5 = getelementptr inbounds ptr, ptr %vtable4, i64 3
  %11 = load ptr, ptr %vfn5, align 8
  %call6 = call noundef double %11(ptr noundef nonnull align 8 dereferenceable(40) %this1, ptr noundef nonnull align 1 %8, double noundef %9, double noundef %10)
  %fneg = fneg double %call6
  store double %fneg, ptr %retval, align 8
  br label %return

return:                                           ; preds = %if.else, %if.then3, %if.then
  %12 = load double, ptr %retval, align 8
  ret double %12
}