; Function Attrs: mustprogress uwtable
define noundef double @_ZNK8QuantLib10IntegratorclERKSt8functionIFddEEdd(ptr noundef nonnull align 8 dereferenceable(40) %this, ptr noundef nonnull align 1 %f, double noundef %a, double noundef %b) local_unnamed_addr #0 align 2 {
entry:
  %evaluations_ = getelementptr inbounds nuw i8, ptr %this, i64 32
  store i64 0, ptr %evaluations_, align 8, !tbaa !25
  %cmp = fcmp oeq double %a, %b
  br i1 %cmp, label %return, label %if.end

if.end:                                           ; preds = %entry
  %cmp2 = fcmp ogt double %b, %a
  %vtable = load ptr, ptr %this, align 8, !tbaa !3
  %vfn = getelementptr inbounds i8, ptr %vtable, i64 24
  %0 = load ptr, ptr %vfn, align 8
  br i1 %cmp2, label %if.then3, label %if.else

if.then3:                                         ; preds = %if.end
  %call = tail call noundef double %0(ptr noundef nonnull align 8 dereferenceable(40) %this, ptr noundef nonnull align 1 %f, double noundef %a, double noundef %b)
  br label %return

if.else:                                          ; preds = %if.end
  %call6 = tail call noundef double %0(ptr noundef nonnull align 8 dereferenceable(40) %this, ptr noundef nonnull align 1 %f, double noundef %b, double noundef %a)
  %fneg = fneg double %call6
  br label %return

return:                                           ; preds = %entry, %if.else, %if.then3
  %retval.0 = phi double [ %call, %if.then3 ], [ %fneg, %if.else ], [ 0.000000e+00, %entry ]
  ret double %retval.0
}